Certificate:
    Data:
        Version: 3 (0x2)
        Serial Number:
            50:a9:b7:34:d2:17:1c:7d:0a:fc:89:2d:8c:44:e6:ef:e1:37:2b:d8
        Signature Algorithm: ecdsa-with-SHA256
        Issuer: C = FR, L = Limoges, O = TMC, OU = IOT, CN = ACTMC
        Validity
            Not Before: Feb 20 20:30:18 2021 GMT
            Not After : Feb 18 20:30:18 2031 GMT
        Subject: C = FR, L = Limoges, O = TMC, OU = IOT, CN = mqtt.com
        Subject Public Key Info:
            Public Key Algorithm: id-ecPublicKey
                Public-Key: (256 bit)
                pub:
                    04:22:0c:fe:48:69:55:c4:98:ab:ec:16:a5:cb:16:
                    c6:7e:fe:dc:4c:5b:a2:c5:ed:bf:20:52:8c:1c:c6:
                    0f:40:91:0c:58:0a:0b:03:d4:8e:27:f2:23:89:35:
                    40:00:ee:bd:f6:c7:17:69:44:1a:19:aa:c4:60:1b:
                    cd:a6:42:c2:3e
                ASN1 OID: prime256v1
                NIST CURVE: P-256
        X509v3 extensions:
            X509v3 Basic Constraints: critical
                CA:FALSE
    Signature Algorithm: ecdsa-with-SHA256
         30:44:02:20:52:ec:27:5f:dc:e4:94:d3:12:b2:45:31:88:a0:
         91:7d:a2:1b:dc:97:78:d3:f8:6b:d2:1c:f1:6c:c8:36:25:c4:
         02:20:2d:01:cf:eb:c2:a3:e8:c4:a4:d3:0b:2c:a7:b4:d0:20:
         7e:e1:0b:7a:bd:7c:e1:a9:92:b0:74:6a:2c:5f:15:b3
Trusted Uses:
  TLS Web Client Authentication
No Rejected Uses.
-----BEGIN TRUSTED CERTIFICATE-----
MIIBqjCCAVGgAwIBAgIUUKm3NNIXHH0K/IktjETm7+E3K9gwCgYIKoZIzj0EAwIw
SzELMAkGA1UEBhMCRlIxEDAOBgNVBAcMB0xpbW9nZXMxDDAKBgNVBAoMA1RNQzEM
MAoGA1UECwwDSU9UMQ4wDAYDVQQDDAVBQ1RNQzAeFw0yMTAyMjAyMDMwMThaFw0z
MTAyMTgyMDMwMThaME4xCzAJBgNVBAYTAkZSMRAwDgYDVQQHDAdMaW1vZ2VzMQww
CgYDVQQKDANUTUMxDDAKBgNVBAsMA0lPVDERMA8GA1UEAwwIbXF0dC5jb20wWTAT
BgcqhkjOPQIBBggqhkjOPQMBBwNCAAQiDP5IaVXEmKvsFqXLFsZ+/txMW6LF7b8g
Uowcxg9AkQxYCgsD1I4n8iOJNUAA7r32xxdpRBoZqsRgG82mQsI+oxAwDjAMBgNV
HRMBAf8EAjAAMAoGCCqGSM49BAMCA0cAMEQCIFLsJ1/c5JTTErJFMYigkX2iG9yX
eNP4a9Ic8WzINiXEAiAtAc/rwqPoxKTTCyyntNAgfuELer184amSsHRqLF8VszAM
MAoGCCsGAQUFBwMC
-----END TRUSTED CERTIFICATE-----
