Certificate Request:
    Data:
        Version: 1 (0x0)
        Subject: C = FR, L = Limoges, O = TMC, OU = IOT, CN = esp8266
        Subject Public Key Info:
            Public Key Algorithm: id-ecPublicKey
                Public-Key: (256 bit)
                pub:
                    04:a5:08:ec:64:c3:61:d0:05:a9:ed:46:70:14:b2:
                    fa:f1:16:8a:42:1e:8b:8c:fc:89:0b:99:c0:af:06:
                    10:40:57:bd:15:71:1c:a3:fa:04:65:6f:39:07:77:
                    e5:f1:52:98:6a:a7:aa:d4:76:5a:ff:04:ac:8b:a2:
                    74:0c:29:6d:75
                ASN1 OID: prime256v1
                NIST CURVE: P-256
        Attributes:
        Requested Extensions:
            X509v3 Basic Constraints: 
                CA:FALSE
    Signature Algorithm: ecdsa-with-SHA256
         30:45:02:21:00:d8:19:24:14:78:01:e4:f8:2b:5a:a5:c3:54:
         ac:3c:73:5e:2b:f9:34:3c:2b:c3:db:02:2f:55:f5:4c:24:b6:
         82:02:20:25:cd:a6:4a:51:c6:4f:f7:7d:e6:72:a7:b8:c6:2e:
         44:0d:2d:95:c8:5e:ba:00:ea:16:c8:45:66:41:84:f9:4e
-----BEGIN CERTIFICATE REQUEST-----
MIIBJDCBywIBADBNMQswCQYDVQQGEwJGUjEQMA4GA1UEBwwHTGltb2dlczEMMAoG
A1UECgwDVE1DMQwwCgYDVQQLDANJT1QxEDAOBgNVBAMMB2VzcDgyNjYwWTATBgcq
hkjOPQIBBggqhkjOPQMBBwNCAASlCOxkw2HQBantRnAUsvrxFopCHouM/IkLmcCv
BhBAV70VcRyj+gRlbzkHd+XxUphqp6rUdlr/BKyLonQMKW11oBwwGgYJKoZIhvcN
AQkOMQ0wCzAJBgNVHRMEAjAAMAoGCCqGSM49BAMCA0gAMEUCIQDYGSQUeAHk+Cta
pcNUrDxzXiv5NDwrw9sCL1X1TCS2ggIgJc2mSlHGT/d95nKnuMYuRA0tlcheugDq
FshFZkGE+U4=
-----END CERTIFICATE REQUEST-----
