Certificate Request:
    Data:
        Version: 1 (0x0)
        Subject: C = FR, L = Limoges, O = TMC, OU = IOT, CN = mqtt.com
        Subject Public Key Info:
            Public Key Algorithm: id-ecPublicKey
                Public-Key: (256 bit)
                pub:
                    04:22:0c:fe:48:69:55:c4:98:ab:ec:16:a5:cb:16:
                    c6:7e:fe:dc:4c:5b:a2:c5:ed:bf:20:52:8c:1c:c6:
                    0f:40:91:0c:58:0a:0b:03:d4:8e:27:f2:23:89:35:
                    40:00:ee:bd:f6:c7:17:69:44:1a:19:aa:c4:60:1b:
                    cd:a6:42:c2:3e
                ASN1 OID: prime256v1
                NIST CURVE: P-256
        Attributes:
        Requested Extensions:
            X509v3 Basic Constraints: 
                CA:FALSE
    Signature Algorithm: ecdsa-with-SHA256
         30:44:02:20:1f:6a:d0:50:59:55:34:1f:dc:56:95:d1:a0:ce:
         58:39:67:c0:66:df:7e:96:dc:fc:6c:50:73:1d:cf:95:be:45:
         02:20:50:f2:cd:0b:fe:4d:58:72:08:75:3a:d4:8b:ae:19:19:
         bd:09:67:74:89:e4:27:39:f9:04:7f:e9:7a:02:69:84
-----BEGIN CERTIFICATE REQUEST-----
MIIBJDCBzAIBADBOMQswCQYDVQQGEwJGUjEQMA4GA1UEBwwHTGltb2dlczEMMAoG
A1UECgwDVE1DMQwwCgYDVQQLDANJT1QxETAPBgNVBAMMCG1xdHQuY29tMFkwEwYH
KoZIzj0CAQYIKoZIzj0DAQcDQgAEIgz+SGlVxJir7BalyxbGfv7cTFuixe2/IFKM
HMYPQJEMWAoLA9SOJ/IjiTVAAO699scXaUQaGarEYBvNpkLCPqAcMBoGCSqGSIb3
DQEJDjENMAswCQYDVR0TBAIwADAKBggqhkjOPQQDAgNHADBEAiAfatBQWVU0H9xW
ldGgzlg5Z8Bm336W3PxsUHMdz5W+RQIgUPLNC/5NWHIIdTrUi64ZGb0JZ3SJ5Cc5
+QR/6XoCaYQ=
-----END CERTIFICATE REQUEST-----
