-----BEGIN CERTIFICATE-----
MIIBqTCCAVCgAwIBAgIUUKm3NNIXHH0K/IktjETm7+E3K9kwCgYIKoZIzj0EAwIw
SzELMAkGA1UEBhMCRlIxEDAOBgNVBAcMB0xpbW9nZXMxDDAKBgNVBAoMA1RNQzEM
MAoGA1UECwwDSU9UMQ4wDAYDVQQDDAVBQ1RNQzAeFw0yMTAyMjAyMDMwMzJaFw0z
MTAyMTgyMDMwMzJaME0xCzAJBgNVBAYTAkZSMRAwDgYDVQQHDAdMaW1vZ2VzMQww
CgYDVQQKDANUTUMxDDAKBgNVBAsMA0lPVDEQMA4GA1UEAwwHZXNwODI2NjBZMBMG
ByqGSM49AgEGCCqGSM49AwEHA0IABKUI7GTDYdAFqe1GcBSy+vEWikIei4z8iQuZ
wK8GEEBXvRVxHKP6BGVvOQd35fFSmGqnqtR2Wv8ErIuidAwpbXWjEDAOMAwGA1Ud
EwEB/wQCMAAwCgYIKoZIzj0EAwIDRwAwRAIgXyqXkNTAhr08dYOVe+7+s8Iq281A
HWi5XcXVy8EIIEsCIEElwSRCTcWHxdoOB5zw1YloKxEWazBbdRpFjYpVMYwmMAww
CgYIKwYBBQUHAwI=
-----END CERTIFICATE-----

Certificate:
    Data:
        Version: 3 (0x2)
        Serial Number:
            50:a9:b7:34:d2:17:1c:7d:0a:fc:89:2d:8c:44:e6:ef:e1:37:2b:d9
        Signature Algorithm: ecdsa-with-SHA256
        Issuer: C = FR, L = Limoges, O = TMC, OU = IOT, CN = ACTMC
        Validity
            Not Before: Feb 20 20:30:32 2021 GMT
            Not After : Feb 18 20:30:32 2031 GMT
        Subject: C = FR, L = Limoges, O = TMC, OU = IOT, CN = esp8266
        Subject Public Key Info:
            Public Key Algorithm: id-ecPublicKey
                Public-Key: (256 bit)
                pub:
                    04:a5:08:ec:64:c3:61:d0:05:a9:ed:46:70:14:b2:
                    fa:f1:16:8a:42:1e:8b:8c:fc:89:0b:99:c0:af:06:
                    10:40:57:bd:15:71:1c:a3:fa:04:65:6f:39:07:77:
                    e5:f1:52:98:6a:a7:aa:d4:76:5a:ff:04:ac:8b:a2:
                    74:0c:29:6d:75
                ASN1 OID: prime256v1
                NIST CURVE: P-256
        X509v3 extensions:
            X509v3 Basic Constraints: critical
                CA:FALSE
    Signature Algorithm: ecdsa-with-SHA256
         30:44:02:20:5f:2a:97:90:d4:c0:86:bd:3c:75:83:95:7b:ee:
         fe:b3:c2:2a:db:cd:40:1d:68:b9:5d:c5:d5:cb:c1:08:20:4b:
         02:20:41:25:c1:24:42:4d:c5:87:c5:da:0e:07:9c:f0:d5:89:
         68:2b:11:16:6b:30:5b:75:1a:45:8d:8a:55:31:8c:26
Trusted Uses:
  TLS Web Client Authentication
No Rejected Uses.
-----BEGIN TRUSTED CERTIFICATE-----
MIIBqTCCAVCgAwIBAgIUUKm3NNIXHH0K/IktjETm7+E3K9kwCgYIKoZIzj0EAwIw
SzELMAkGA1UEBhMCRlIxEDAOBgNVBAcMB0xpbW9nZXMxDDAKBgNVBAoMA1RNQzEM
MAoGA1UECwwDSU9UMQ4wDAYDVQQDDAVBQ1RNQzAeFw0yMTAyMjAyMDMwMzJaFw0z
MTAyMTgyMDMwMzJaME0xCzAJBgNVBAYTAkZSMRAwDgYDVQQHDAdMaW1vZ2VzMQww
CgYDVQQKDANUTUMxDDAKBgNVBAsMA0lPVDEQMA4GA1UEAwwHZXNwODI2NjBZMBMG
ByqGSM49AgEGCCqGSM49AwEHA0IABKUI7GTDYdAFqe1GcBSy+vEWikIei4z8iQuZ
wK8GEEBXvRVxHKP6BGVvOQd35fFSmGqnqtR2Wv8ErIuidAwpbXWjEDAOMAwGA1Ud
EwEB/wQCMAAwCgYIKoZIzj0EAwIDRwAwRAIgXyqXkNTAhr08dYOVe+7+s8Iq281A
HWi5XcXVy8EIIEsCIEElwSRCTcWHxdoOB5zw1YloKxEWazBbdRpFjYpVMYwmMAww
CgYIKwYBBQUHAwI=
-----END TRUSTED CERTIFICATE-----
