Certificate:
    Data:
        Version: 3 (0x2)
        Serial Number:
            49:42:4a:09:f7:5f:78:fd:ad:80:2e:e7:c0:ed:08:3c:26:86:1d:d6
        Signature Algorithm: ecdsa-with-SHA256
        Issuer: C = FR, L = Limoges, O = TMC, OU = IOT, CN = ACTMC
        Validity
            Not Before: Feb 20 20:30:05 2021 GMT
            Not After : Mar 22 20:30:05 2021 GMT
        Subject: C = FR, L = Limoges, O = TMC, OU = IOT, CN = ACTMC
        Subject Public Key Info:
            Public Key Algorithm: id-ecPublicKey
                Public-Key: (256 bit)
                pub:
                    04:a6:b5:b9:e9:4a:5e:af:2f:ea:67:e1:2d:4c:d5:
                    ab:76:a1:a0:67:7b:da:de:3e:c0:51:48:83:2c:33:
                    c6:71:03:6e:48:2c:35:c5:38:be:71:51:fa:40:6f:
                    b8:7e:8e:f3:17:c6:0a:c1:6b:f2:e8:04:0c:a8:eb:
                    d4:fa:84:ca:bc
                ASN1 OID: prime256v1
                NIST CURVE: P-256
        X509v3 extensions:
            X509v3 Basic Constraints: 
                CA:TRUE
    Signature Algorithm: ecdsa-with-SHA256
         30:46:02:21:00:d5:ab:14:e5:fc:a0:48:50:a1:3d:0a:b7:3f:
         eb:f5:5d:06:fb:e9:6f:0e:2f:7f:0e:ee:fe:d4:9b:82:f1:eb:
         7f:02:21:00:90:30:32:81:9a:f8:06:fd:ff:61:63:a4:e6:1c:
         29:f2:8f:e9:a2:6f:00:67:e9:fc:f3:94:5b:43:d3:39:1a:3a
-----BEGIN CERTIFICATE-----
MIIBqTCCAU6gAwIBAgIUSUJKCfdfeP2tgC7nwO0IPCaGHdYwCgYIKoZIzj0EAwIw
SzELMAkGA1UEBhMCRlIxEDAOBgNVBAcMB0xpbW9nZXMxDDAKBgNVBAoMA1RNQzEM
MAoGA1UECwwDSU9UMQ4wDAYDVQQDDAVBQ1RNQzAeFw0yMTAyMjAyMDMwMDVaFw0y
MTAzMjIyMDMwMDVaMEsxCzAJBgNVBAYTAkZSMRAwDgYDVQQHDAdMaW1vZ2VzMQww
CgYDVQQKDANUTUMxDDAKBgNVBAsMA0lPVDEOMAwGA1UEAwwFQUNUTUMwWTATBgcq
hkjOPQIBBggqhkjOPQMBBwNCAASmtbnpSl6vL+pn4S1M1at2oaBne9rePsBRSIMs
M8ZxA25ILDXFOL5xUfpAb7h+jvMXxgrBa/LoBAyo69T6hMq8oxAwDjAMBgNVHRME
BTADAQH/MAoGCCqGSM49BAMCA0kAMEYCIQDVqxTl/KBIUKE9Crc/6/VdBvvpbw4v
fw7u/tSbgvHrfwIhAJAwMoGa+Ab9/2FjpOYcKfKP6aJvAGfp/POUW0PTORo6
-----END CERTIFICATE-----
